target datalayout = "e-m:e-p270:32:32-p271:32:32-p272:64:64-i64:64-i128:128-f80:128-n8:16:32:64-S128"
target triple = "x86_64-pc-linux-gnu"

@.str.52 = private unnamed_addr constant [3 x i8] c"  \00", align 1
@.str.53 = private unnamed_addr constant [5 x i8] c" %4d\00", align 1
@.str.54 = private unnamed_addr constant [7 x i8] c"%4.2fk\00", align 1
@.str.55 = private unnamed_addr constant [7 x i8] c"%4.1fk\00", align 1
@.str.56 = private unnamed_addr constant [7 x i8] c"%4.0fk\00", align 1
@.str.57 = private unnamed_addr constant [7 x i8] c"%4.2fm\00", align 1
@.str.58 = private unnamed_addr constant [7 x i8] c"%4.1fm\00", align 1
@.str.59 = private unnamed_addr constant [7 x i8] c"%4.0fm\00", align 1

; Function Attrs: inlinehint nounwind uwtable
define internal void @Abc_PrintInt(i32 noundef %0) #2 {
  %2 = alloca i32, align 4
  %3 = alloca double, align 8
  %4 = alloca double, align 8
  store i32 %0, ptr %2, align 4, !tbaa !8
  call void @llvm.lifetime.start.p0(i64 8, ptr %3) #13
  %5 = load i32, ptr %2, align 4, !tbaa !8
  %6 = sitofp i32 %5 to double
  %7 = fdiv double %6, 1.000000e+03
  store double %7, ptr %3, align 8, !tbaa !173
  call void @llvm.lifetime.start.p0(i64 8, ptr %4) #13
  %8 = load i32, ptr %2, align 4, !tbaa !8
  %9 = sitofp i32 %8 to double
  %10 = fdiv double %9, 1.000000e+06
  store double %10, ptr %4, align 8, !tbaa !173
  call void (i32, ptr, ...) @Abc_Print(i32 noundef 1, ptr noundef @.str.52)
  %11 = load i32, ptr %2, align 4, !tbaa !8
  %12 = icmp sgt i32 %11, -1000
  br i1 %12, label %13, label %18

13:                                               ; preds = %1
  %14 = load i32, ptr %2, align 4, !tbaa !8
  %15 = icmp slt i32 %14, 1000
  br i1 %15, label %16, label %18

16:                                               ; preds = %13
  %17 = load i32, ptr %2, align 4, !tbaa !8
  call void (i32, ptr, ...) @Abc_Print(i32 noundef 1, ptr noundef @.str.53, i32 noundef %17)
  br label %72

18:                                               ; preds = %13, %1
  %19 = load double, ptr %3, align 8, !tbaa !173
  %20 = fcmp ogt double %19, 0xC023FD70A3D70A3D
  br i1 %20, label %21, label %26

21:                                               ; preds = %18
  %22 = load double, ptr %3, align 8, !tbaa !173
  %23 = fcmp olt double %22, 0x4023FD70A3D70A3D
  br i1 %23, label %24, label %26

24:                                               ; preds = %21
  %25 = load double, ptr %3, align 8, !tbaa !173
  call void (i32, ptr, ...) @Abc_Print(i32 noundef 1, ptr noundef @.str.54, double noundef %25)
  br label %71

26:                                               ; preds = %21, %18
  %27 = load double, ptr %3, align 8, !tbaa !173
  %28 = fcmp ogt double %27, -9.995000e+01
  br i1 %28, label %29, label %34

29:                                               ; preds = %26
  %30 = load double, ptr %3, align 8, !tbaa !173
  %31 = fcmp olt double %30, 9.995000e+01
  br i1 %31, label %32, label %34

32:                                               ; preds = %29
  %33 = load double, ptr %3, align 8, !tbaa !173
  call void (i32, ptr, ...) @Abc_Print(i32 noundef 1, ptr noundef @.str.55, double noundef %33)
  br label %70

34:                                               ; preds = %29, %26
  %35 = load double, ptr %3, align 8, !tbaa !173
  %36 = fcmp ogt double %35, -9.995000e+02
  br i1 %36, label %37, label %42

37:                                               ; preds = %34
  %38 = load double, ptr %3, align 8, !tbaa !173
  %39 = fcmp olt double %38, 9.995000e+02
  br i1 %39, label %40, label %42

40:                                               ; preds = %37
  %41 = load double, ptr %3, align 8, !tbaa !173
  call void (i32, ptr, ...) @Abc_Print(i32 noundef 1, ptr noundef @.str.56, double noundef %41)
  br label %69

42:                                               ; preds = %37, %34
  %43 = load double, ptr %4, align 8, !tbaa !173
  %44 = fcmp ogt double %43, 0xC023FD70A3D70A3D
  br i1 %44, label %45, label %50

45:                                               ; preds = %42
  %46 = load double, ptr %4, align 8, !tbaa !173
  %47 = fcmp olt double %46, 0x4023FD70A3D70A3D
  br i1 %47, label %48, label %50

48:                                               ; preds = %45
  %49 = load double, ptr %4, align 8, !tbaa !173
  call void (i32, ptr, ...) @Abc_Print(i32 noundef 1, ptr noundef @.str.57, double noundef %49)
  br label %68

50:                                               ; preds = %45, %42
  %51 = load double, ptr %4, align 8, !tbaa !173
  %52 = fcmp ogt double %51, -9.995000e+01
  br i1 %52, label %53, label %58

53:                                               ; preds = %50
  %54 = load double, ptr %4, align 8, !tbaa !173
  %55 = fcmp olt double %54, 9.995000e+01
  br i1 %55, label %56, label %58

56:                                               ; preds = %53
  %57 = load double, ptr %4, align 8, !tbaa !173
  call void (i32, ptr, ...) @Abc_Print(i32 noundef 1, ptr noundef @.str.58, double noundef %57)
  br label %67

58:                                               ; preds = %53, %50
  %59 = load double, ptr %4, align 8, !tbaa !173
  %60 = fcmp ogt double %59, -9.995000e+02
  br i1 %60, label %61, label %66

61:                                               ; preds = %58
  %62 = load double, ptr %4, align 8, !tbaa !173
  %63 = fcmp olt double %62, 9.995000e+02
  br i1 %63, label %64, label %66

64:                                               ; preds = %61
  %65 = load double, ptr %4, align 8, !tbaa !173
  call void (i32, ptr, ...) @Abc_Print(i32 noundef 1, ptr noundef @.str.59, double noundef %65)
  br label %66

66:                                               ; preds = %64, %61, %58
  br label %67

67:                                               ; preds = %66, %56
  br label %68

68:                                               ; preds = %67, %48
  br label %69

69:                                               ; preds = %68, %40
  br label %70

70:                                               ; preds = %69, %32
  br label %71

71:                                               ; preds = %70, %24
  br label %72

72:                                               ; preds = %71, %16
  call void @llvm.lifetime.end.p0(i64 8, ptr %4) #13
  call void @llvm.lifetime.end.p0(i64 8, ptr %3) #13
  ret void
}