; Function Attrs: inlinehint nounwind uwtable
define internal fastcc void @Abc_PrintInt(i32 noundef %0) unnamed_addr #10 {
  %2 = sitofp i32 %0 to double
  %3 = fdiv double %2, 1.000000e+03
  %4 = fdiv double %2, 1.000000e+06
  tail call void (i32, ptr, ...) @Abc_Print(i32 poison, ptr noundef nonnull @.str.52)
  %5 = add i32 %0, 999
  %or.cond = icmp ult i32 %5, 1999
  br i1 %or.cond, label %6, label %7

6:                                                ; preds = %1
  tail call void (i32, ptr, ...) @Abc_Print(i32 poison, ptr noundef nonnull @.str.53, i32 noundef %0)
  br label %21

7:                                                ; preds = %1
  %8 = tail call double @llvm.fabs.f64(double %3)
  %or.cond3 = fcmp olt double %8, 0x4023FD70A3D70A3D
  br i1 %or.cond3, label %9, label %10

9:                                                ; preds = %7
  tail call void (i32, ptr, ...) @Abc_Print(i32 poison, ptr noundef nonnull @.str.54, double noundef %3)
  br label %21

10:                                               ; preds = %7
  %or.cond5 = fcmp olt double %8, 9.995000e+01
  br i1 %or.cond5, label %11, label %12

11:                                               ; preds = %10
  tail call void (i32, ptr, ...) @Abc_Print(i32 poison, ptr noundef nonnull @.str.55, double noundef %3)
  br label %21

12:                                               ; preds = %10
  %or.cond7 = fcmp olt double %8, 9.995000e+02
  br i1 %or.cond7, label %13, label %14

13:                                               ; preds = %12
  tail call void (i32, ptr, ...) @Abc_Print(i32 poison, ptr noundef nonnull @.str.56, double noundef %3)
  br label %21

14:                                               ; preds = %12
  %15 = tail call double @llvm.fabs.f64(double %4)
  %or.cond9 = fcmp olt double %15, 0x4023FD70A3D70A3D
  br i1 %or.cond9, label %16, label %17

16:                                               ; preds = %14
  tail call void (i32, ptr, ...) @Abc_Print(i32 poison, ptr noundef nonnull @.str.57, double noundef %4)
  br label %21

17:                                               ; preds = %14
  %or.cond11 = fcmp olt double %15, 9.995000e+01
  br i1 %or.cond11, label %18, label %19

18:                                               ; preds = %17
  tail call void (i32, ptr, ...) @Abc_Print(i32 poison, ptr noundef nonnull @.str.58, double noundef %4)
  br label %21

19:                                               ; preds = %17
  %or.cond13 = fcmp olt double %15, 9.995000e+02
  br i1 %or.cond13, label %20, label %21

20:                                               ; preds = %19
  tail call void (i32, ptr, ...) @Abc_Print(i32 poison, ptr noundef nonnull @.str.59, double noundef %4)
  br label %21

21:                                               ; preds = %9, %13, %18, %20, %19, %16, %11, %6
  ret void
}